; Function Attrs: nounwind uwtable
define zeroext i8 @l_Lean_IR_isTailCallTo(ptr noundef %0, ptr noundef %1) local_unnamed_addr #0 {
  %3 = ptrtoint ptr %1 to i64
  %4 = and i64 %3, 1
  %.not.i = icmp eq i64 %4, 0
  br i1 %.not.i, label %8, label %5

5:                                                ; preds = %2
  %6 = lshr i64 %3, 1
  %7 = trunc i64 %6 to i32
  br label %lean_obj_tag.exit

8:                                                ; preds = %2
  %9 = getelementptr i8, ptr %1, i64 4
  %.val.i = load i32, ptr %9, align 4
  %10 = lshr i32 %.val.i, 24
  br label %lean_obj_tag.exit

lean_obj_tag.exit:                                ; preds = %5, %8
  %.0.i21 = phi i32 [ %7, %5 ], [ %10, %8 ]
  %11 = icmp eq i32 %.0.i21, 0
  br i1 %11, label %12, label %66

12:                                               ; preds = %lean_obj_tag.exit
  %13 = getelementptr inbounds nuw i8, ptr %1, i64 8
  %14 = getelementptr inbounds nuw i8, ptr %1, i64 24
  %15 = load ptr, ptr %14, align 8, !tbaa !4
  %16 = ptrtoint ptr %15 to i64
  %17 = and i64 %16, 1
  %.not.i22 = icmp eq i64 %17, 0
  br i1 %.not.i22, label %21, label %18

18:                                               ; preds = %12
  %19 = lshr i64 %16, 1
  %20 = trunc i64 %19 to i32
  br label %lean_obj_tag.exit25

21:                                               ; preds = %12
  %22 = getelementptr i8, ptr %15, i64 4
  %.val.i24 = load i32, ptr %22, align 4
  %23 = lshr i32 %.val.i24, 24
  br label %lean_obj_tag.exit25

lean_obj_tag.exit25:                              ; preds = %18, %21
  %.0.i23 = phi i32 [ %20, %18 ], [ %23, %21 ]
  %24 = icmp eq i32 %.0.i23, 6
  br i1 %24, label %25, label %66

25:                                               ; preds = %lean_obj_tag.exit25
  %26 = getelementptr inbounds nuw i8, ptr %1, i64 32
  %27 = load ptr, ptr %26, align 8, !tbaa !4
  %28 = ptrtoint ptr %27 to i64
  %29 = and i64 %28, 1
  %.not.i26 = icmp eq i64 %29, 0
  br i1 %.not.i26, label %33, label %30

30:                                               ; preds = %25
  %31 = lshr i64 %28, 1
  %32 = trunc i64 %31 to i32
  br label %lean_obj_tag.exit29

33:                                               ; preds = %25
  %34 = getelementptr i8, ptr %27, i64 4
  %.val.i28 = load i32, ptr %34, align 4
  %35 = lshr i32 %.val.i28, 24
  br label %lean_obj_tag.exit29

lean_obj_tag.exit29:                              ; preds = %30, %33
  %.0.i27 = phi i32 [ %32, %30 ], [ %35, %33 ]
  %36 = icmp eq i32 %.0.i27, 11
  br i1 %36, label %37, label %66

37:                                               ; preds = %lean_obj_tag.exit29
  %38 = getelementptr inbounds nuw i8, ptr %27, i64 8
  %39 = load ptr, ptr %38, align 8, !tbaa !4
  %40 = ptrtoint ptr %39 to i64
  %41 = and i64 %40, 1
  %.not.i30 = icmp eq i64 %41, 0
  br i1 %.not.i30, label %45, label %42

42:                                               ; preds = %37
  %43 = lshr i64 %40, 1
  %44 = trunc i64 %43 to i32
  br label %lean_obj_tag.exit33

45:                                               ; preds = %37
  %46 = getelementptr i8, ptr %39, i64 4
  %.val.i32 = load i32, ptr %46, align 4
  %47 = lshr i32 %.val.i32, 24
  br label %lean_obj_tag.exit33

lean_obj_tag.exit33:                              ; preds = %42, %45
  %.0.i31 = phi i32 [ %44, %42 ], [ %47, %45 ]
  %48 = icmp eq i32 %.0.i31, 0
  br i1 %48, label %49, label %66

49:                                               ; preds = %lean_obj_tag.exit33
  %50 = load ptr, ptr %13, align 8, !tbaa !4
  %51 = getelementptr inbounds nuw i8, ptr %15, i64 8
  %52 = load ptr, ptr %51, align 8, !tbaa !4
  %53 = getelementptr inbounds nuw i8, ptr %39, i64 8
  %54 = load ptr, ptr %53, align 8, !tbaa !4
  %55 = ptrtoint ptr %50 to i64
  %56 = and i64 %55, 1
  %57 = icmp ne i64 %56, 0
  %58 = ptrtoint ptr %54 to i64
  %59 = and i64 %58, 1
  %60 = icmp ne i64 %59, 0
  %or.cond = select i1 %57, i1 %60, i1 false
  br i1 %or.cond, label %61, label %lean_nat_eq.exit, !prof !8

61:                                               ; preds = %49
  %62 = icmp eq ptr %50, %54
  br i1 %62, label %64, label %66

lean_nat_eq.exit:                                 ; preds = %49
  %63 = tail call zeroext i1 @lean_nat_big_eq(ptr noundef %50, ptr noundef %54) #4
  br i1 %63, label %64, label %66

64:                                               ; preds = %61, %lean_nat_eq.exit
  %65 = tail call zeroext i8 @lean_name_eq(ptr noundef %52, ptr noundef %0) #4
  br label %66

66:                                               ; preds = %61, %lean_obj_tag.exit, %lean_obj_tag.exit29, %lean_nat_eq.exit, %64, %lean_obj_tag.exit33, %lean_obj_tag.exit25
  %.4 = phi i8 [ %65, %64 ], [ 0, %lean_nat_eq.exit ], [ 0, %lean_obj_tag.exit33 ], [ 0, %lean_obj_tag.exit29 ], [ 0, %lean_obj_tag.exit25 ], [ 0, %lean_obj_tag.exit ], [ 0, %61 ]
  ret i8 %.4
}